; Function Attrs: mustprogress uwtable
define hidden void @_ZN16char_decl_plugin14get_sort_namesER7svectorI12builtin_namejERK6symbol(ptr nonnull readnone align 8 captures(none) %0, ptr noundef nonnull align 8 dereferenceable(8) %1, ptr nonnull readnone align 8 captures(none) %2) unnamed_addr #3 align 2 {
  %4 = alloca %struct.builtin_name, align 8
  call void @llvm.lifetime.start.p0(i64 16, ptr nonnull %4) #20
  store i32 0, ptr %4, align 8, !tbaa !115
  %5 = getelementptr inbounds nuw i8, ptr %4, i64 8
  call void @_ZN6symbolC1EPKc(ptr noundef nonnull align 8 dereferenceable(8) %5, ptr noundef nonnull @.str.20)
  %6 = load ptr, ptr %1, align 8, !tbaa !117
  %7 = icmp eq ptr %6, null
  br i1 %7, label %14, label %8

8:                                                ; preds = %3
  %9 = getelementptr inbounds i8, ptr %6, i64 -4
  %10 = load i32, ptr %9, align 4, !tbaa !90
  %11 = getelementptr inbounds i8, ptr %6, i64 -8
  %12 = load i32, ptr %11, align 4, !tbaa !90
  %13 = icmp eq i32 %10, %12
  br i1 %13, label %14, label %_ZN6vectorI12builtin_nameLb0EjE9push_backEOS0_.exit

14:                                               ; preds = %8, %3
  call void @_ZN6vectorI12builtin_nameLb0EjE13expand_vectorEv(ptr noundef nonnull align 8 dereferenceable(8) %1)
  %.pre.i = load ptr, ptr %1, align 8, !tbaa !117
  %.phi.trans.insert.i = getelementptr inbounds i8, ptr %.pre.i, i64 -4
  %.pre2.i = load i32, ptr %.phi.trans.insert.i, align 4, !tbaa !90
  br label %_ZN6vectorI12builtin_nameLb0EjE9push_backEOS0_.exit

_ZN6vectorI12builtin_nameLb0EjE9push_backEOS0_.exit: ; preds = %8, %14
  %15 = phi i32 [ %.pre2.i, %14 ], [ %10, %8 ]
  %16 = phi ptr [ %.pre.i, %14 ], [ %6, %8 ]
  %17 = zext i32 %15 to i64
  %18 = getelementptr inbounds nuw %struct.builtin_name, ptr %16, i64 %17
  call void @llvm.memcpy.p0.p0.i64(ptr noundef nonnull align 8 dereferenceable(16) %18, ptr noundef nonnull align 8 dereferenceable(16) %4, i64 16, i1 false), !tbaa.struct !120
  %19 = load ptr, ptr %1, align 8, !tbaa !117
  %20 = getelementptr inbounds i8, ptr %19, i64 -4
  %21 = load i32, ptr %20, align 4, !tbaa !90
  %22 = add i32 %21, 1
  store i32 %22, ptr %20, align 4, !tbaa !90
  call void @llvm.lifetime.end.p0(i64 16, ptr nonnull %4) #20
  ret void
}